; Function Attrs: mustprogress uwtable
define noundef ptr @_ZN6icu_7718DateIntervalFormat14createInstanceERKNS_13UnicodeStringERKNS_16DateIntervalInfoER10UErrorCode(ptr noundef nonnull align 8 dereferenceable(64) %0, ptr noundef nonnull align 8 dereferenceable(88) %1, ptr noundef nonnull align 4 dereferenceable(4) %2) local_unnamed_addr #1 align 2 personality ptr @__gxx_personality_v0 {
  %4 = tail call noundef nonnull align 8 dereferenceable(217) ptr @_ZN6icu_776Locale10getDefaultEv()
  %5 = tail call noundef ptr @_ZNK6icu_7716DateIntervalInfo5cloneEv(ptr noundef nonnull align 8 dereferenceable(88) %1)
  %6 = tail call noundef ptr @_ZN6icu_777UMemorynwEm(i64 noundef 1600) #19
  %7 = icmp eq ptr %6, null
  br i1 %7, label %9, label %8

8:                                                ; preds = %3
  invoke void @_ZN6icu_7718DateIntervalFormatC1ERKNS_6LocaleEPNS_16DateIntervalInfoEPKNS_13UnicodeStringER10UErrorCode(ptr noundef nonnull align 8 dereferenceable(1596) %6, ptr noundef nonnull align 8 dereferenceable(217) %4, ptr noundef %5, ptr noundef nonnull align 8 dereferenceable(64) %0, ptr noundef nonnull align 4 dereferenceable(4) %2)
          to label %14 unwind label %12

9:                                                ; preds = %3
  store i32 7, ptr %2, align 4, !tbaa !13
  %10 = icmp eq ptr %5, null
  br i1 %10, label %_ZN6icu_7718DateIntervalFormat14createInstanceERKNS_13UnicodeStringERKNS_6LocaleERKNS_16DateIntervalInfoER10UErrorCode.exit, label %11

11:                                               ; preds = %9
  tail call void @_ZN6icu_7716DateIntervalInfoD1Ev(ptr noundef nonnull align 8 dereferenceable(88) %5) #19
  tail call void @_ZN6icu_777UMemorydlEPv(ptr noundef nonnull %5) #19
  br label %_ZN6icu_7718DateIntervalFormat14createInstanceERKNS_13UnicodeStringERKNS_6LocaleERKNS_16DateIntervalInfoER10UErrorCode.exit

12:                                               ; preds = %8
  %13 = landingpad { ptr, i32 }
          cleanup
  tail call void @_ZN6icu_777UMemorydlEPv(ptr noundef nonnull %6) #19
  resume { ptr, i32 } %13

14:                                               ; preds = %8
  %15 = load i32, ptr %2, align 4, !tbaa !13
  %16 = icmp slt i32 %15, 1
  br i1 %16, label %_ZN6icu_7718DateIntervalFormat14createInstanceERKNS_13UnicodeStringERKNS_6LocaleERKNS_16DateIntervalInfoER10UErrorCode.exit, label %17

17:                                               ; preds = %14
  %18 = load ptr, ptr %6, align 8, !tbaa !15
  %19 = getelementptr inbounds nuw i8, ptr %18, i64 8
  %20 = load ptr, ptr %19, align 8
  tail call void %20(ptr noundef nonnull align 8 dereferenceable(1596) %6) #19
  br label %_ZN6icu_7718DateIntervalFormat14createInstanceERKNS_13UnicodeStringERKNS_6LocaleERKNS_16DateIntervalInfoER10UErrorCode.exit

_ZN6icu_7718DateIntervalFormat14createInstanceERKNS_13UnicodeStringERKNS_6LocaleERKNS_16DateIntervalInfoER10UErrorCode.exit: ; preds = %9, %11, %14, %17
  %.0.i.i = phi ptr [ null, %9 ], [ null, %11 ], [ null, %17 ], [ %6, %14 ]
  ret ptr %.0.i.i
}